target datalayout = "e-m:e-p270:32:32-p271:32:32-p272:64:64-i64:64-i128:128-f80:128-n8:16:32:64-S128"
target triple = "x86_64-unknown-linux-gnu"

%"struct.icu_75::number::impl::ParsedPatternInfo" = type <{ %"class.icu_75::number::impl::AffixPatternProvider", %"class.icu_75::UnicodeString", %"struct.icu_75::number::impl::ParsedSubpatternInfo", %"struct.icu_75::number::impl::ParsedSubpatternInfo", %"struct.icu_75::number::impl::ParsedPatternInfo::ParserState", ptr, i8, [7 x i8] }>
%"class.icu_75::number::impl::AffixPatternProvider" = type { ptr }
%"class.icu_75::UnicodeString" = type { %"class.icu_75::Replaceable", %"union.icu_75::UnicodeString::StackBufferOrFields" }
%"class.icu_75::Replaceable" = type { %"class.icu_75::UObject" }
%"class.icu_75::UObject" = type { ptr }
%"union.icu_75::UnicodeString::StackBufferOrFields" = type { %struct.anon.0, [32 x i8] }
%struct.anon.0 = type { i16, i32, i32, ptr }
%"struct.icu_75::number::impl::ParsedSubpatternInfo" = type { i64, i32, i32, i32, i32, i32, i32, i32, i32, i8, i32, i8, i32, %"class.icu_75::number::impl::DecimalQuantity", i8, i32, i8, i8, i8, i8, i8, i8, %"struct.icu_75::number::impl::Endpoints", %"struct.icu_75::number::impl::Endpoints", %"struct.icu_75::number::impl::Endpoints" }
%"class.icu_75::number::impl::DecimalQuantity" = type <{ %"class.icu_75::IFixedDecimal", i8, [3 x i8], i32, i32, i8, i8, [2 x i8], double, i32, i32, i32, i32, %union.anon, i8, i8, [6 x i8] }>
%"class.icu_75::IFixedDecimal" = type { ptr }
%union.anon = type { %struct.anon.1 }
%struct.anon.1 = type { ptr, i32 }
%"struct.icu_75::number::impl::Endpoints" = type { i32, i32 }
%"struct.icu_75::number::impl::ParsedPatternInfo::ParserState" = type <{ ptr, i32, [4 x i8] }>

; Function Attrs: mustprogress nounwind uwtable
define linkonce_odr noundef i32 @_ZNK6icu_7513UnicodeString14getShortLengthEv(ptr noundef nonnull align 8 dereferenceable(64) %this) #0 comdat align 2 {
entry:
  %this.addr = alloca ptr, align 8
  store ptr %this, ptr %this.addr, align 8
  %this1 = load ptr, ptr %this.addr, align 8
  %fUnion = getelementptr inbounds %"class.icu_75::UnicodeString", ptr %this1, i32 0, i32 1
  %fLengthAndFlags = getelementptr inbounds %struct.anon.0, ptr %fUnion, i32 0, i32 0
  %0 = load i16, ptr %fLengthAndFlags, align 8
  %conv = sext i16 %0 to i32
  %shr = ashr i32 %conv, 5
  ret i32 %shr
}

; Function Attrs: mustprogress nounwind uwtable
define linkonce_odr noundef signext i8 @_ZNK6icu_7513UnicodeString14hasShortLengthEv(ptr noundef nonnull align 8 dereferenceable(64) %this) #0 comdat align 2 {
entry:
  %this.addr = alloca ptr, align 8
  store ptr %this, ptr %this.addr, align 8
  %this1 = load ptr, ptr %this.addr, align 8
  %fUnion = getelementptr inbounds %"class.icu_75::UnicodeString", ptr %this1, i32 0, i32 1
  %fLengthAndFlags = getelementptr inbounds %struct.anon.0, ptr %fUnion, i32 0, i32 0
  %0 = load i16, ptr %fLengthAndFlags, align 8
  %conv = sext i16 %0 to i32
  %cmp = icmp sge i32 %conv, 0
  %conv2 = zext i1 %cmp to i8
  ret i8 %conv2
}

; Function Attrs: mustprogress uwtable
define linkonce_odr noundef i32 @_ZNK6icu_7513UnicodeString6lengthEv(ptr noundef nonnull align 8 dereferenceable(64) %this) #1 comdat align 2 {
entry:
  %this.addr = alloca ptr, align 8
  store ptr %this, ptr %this.addr, align 8
  %this1 = load ptr, ptr %this.addr, align 8
  %call = call noundef signext i8 @_ZNK6icu_7513UnicodeString14hasShortLengthEv(ptr noundef nonnull align 8 dereferenceable(64) %this1)
  %tobool = icmp ne i8 %call, 0
  br i1 %tobool, label %cond.true, label %cond.false

cond.true:                                        ; preds = %entry
  %call2 = call noundef i32 @_ZNK6icu_7513UnicodeString14getShortLengthEv(ptr noundef nonnull align 8 dereferenceable(64) %this1)
  br label %cond.end

cond.false:                                       ; preds = %entry
  %fUnion = getelementptr inbounds %"class.icu_75::UnicodeString", ptr %this1, i32 0, i32 1
  %fLength = getelementptr inbounds %struct.anon.0, ptr %fUnion, i32 0, i32 1
  %0 = load i32, ptr %fLength, align 4
  br label %cond.end

cond.end:                                         ; preds = %cond.false, %cond.true
  %cond = phi i32 [ %call2, %cond.true ], [ %0, %cond.false ]
  ret i32 %cond
}

; Function Attrs: mustprogress uwtable
define noundef i32 @_ZN6icu_756number4impl17ParsedPatternInfo11ParserState4nextEv(ptr noundef nonnull align 8 dereferenceable(12) %this) #1 align 2 {
entry:
  %this.addr = alloca ptr, align 8
  %codePoint = alloca i32, align 4
  store ptr %this, ptr %this.addr, align 8
  %this1 = load ptr, ptr %this.addr, align 8
  %call = call noundef i32 @_ZN6icu_756number4impl17ParsedPatternInfo11ParserState4peekEv(ptr noundef nonnull align 8 dereferenceable(12) %this1)
  store i32 %call, ptr %codePoint, align 4
  %0 = load i32, ptr %codePoint, align 4
  %cmp = icmp ule i32 %0, 65535
  %cond = select i1 %cmp, i32 1, i32 2
  %offset = getelementptr inbounds %"struct.icu_75::number::impl::ParsedPatternInfo::ParserState", ptr %this1, i32 0, i32 1
  %1 = load i32, ptr %offset, align 8
  %add = add nsw i32 %1, %cond
  store i32 %add, ptr %offset, align 8
  %2 = load i32, ptr %codePoint, align 4
  ret i32 %2
}

; Function Attrs: mustprogress nounwind uwtable
define linkonce_odr void @_ZN6icu_756number4impl17ParsedPatternInfo11ParserState16toParseExceptionEPKDs(ptr noundef nonnull align 8 dereferenceable(12) %this, ptr noundef %message) #0 comdat align 2 {
entry:
  %this.addr = alloca ptr, align 8
  %message.addr = alloca ptr, align 8
  store ptr %this, ptr %this.addr, align 8
  store ptr %message, ptr %message.addr, align 8
  ret void
}

; Function Attrs: mustprogress uwtable
define noundef i32 @_ZN6icu_756number4impl17ParsedPatternInfo11ParserState4peekEv(ptr noundef nonnull align 8 dereferenceable(12) %this) #1 align 2 {
entry:
  %retval = alloca i32, align 4
  %this.addr = alloca ptr, align 8
  store ptr %this, ptr %this.addr, align 8
  %this1 = load ptr, ptr %this.addr, align 8
  %offset = getelementptr inbounds %"struct.icu_75::number::impl::ParsedPatternInfo::ParserState", ptr %this1, i32 0, i32 1
  %0 = load i32, ptr %offset, align 8
  %pattern = getelementptr inbounds %"struct.icu_75::number::impl::ParsedPatternInfo::ParserState", ptr %this1, i32 0, i32 0
  %1 = load ptr, ptr %pattern, align 8
  %call = call noundef i32 @_ZNK6icu_7513UnicodeString6lengthEv(ptr noundef nonnull align 8 dereferenceable(64) %1)
  %cmp = icmp eq i32 %0, %call
  br i1 %cmp, label %if.then, label %if.else

if.then:                                          ; preds = %entry
  store i32 -1, ptr %retval, align 4
  br label %return

if.else:                                          ; preds = %entry
  %pattern2 = getelementptr inbounds %"struct.icu_75::number::impl::ParsedPatternInfo::ParserState", ptr %this1, i32 0, i32 0
  %2 = load ptr, ptr %pattern2, align 8
  %offset3 = getelementptr inbounds %"struct.icu_75::number::impl::ParsedPatternInfo::ParserState", ptr %this1, i32 0, i32 1
  %3 = load i32, ptr %offset3, align 8
  %call4 = call noundef i32 @_ZNK6icu_7513UnicodeString8char32AtEi(ptr noundef nonnull align 8 dereferenceable(64) %2, i32 noundef %3)
  store i32 %call4, ptr %retval, align 4
  br label %return

return:                                           ; preds = %if.else, %if.then
  %4 = load i32, ptr %retval, align 4
  ret i32 %4
}

; Function Attrs: mustprogress uwtable
define void @_ZN6icu_756number4impl17ParsedPatternInfo21consumeFractionFormatER10UErrorCode(ptr noundef nonnull align 8 dereferenceable(433) %this, ptr noundef nonnull align 4 dereferenceable(4) %status) #1 align 2 {
entry:
  %this.addr = alloca ptr, align 8
  %status.addr = alloca ptr, align 8
  %result = alloca ptr, align 8
  %zeroCounter = alloca i32, align 4
  store ptr %this, ptr %this.addr, align 8
  store ptr %status, ptr %status.addr, align 8
  %this1 = load ptr, ptr %this.addr, align 8
  %currentSubpattern = getelementptr inbounds %"struct.icu_75::number::impl::ParsedPatternInfo", ptr %this1, i32 0, i32 5
  %0 = load ptr, ptr %currentSubpattern, align 8
  store ptr %0, ptr %result, align 8
  store i32 0, ptr %zeroCounter, align 4
  br label %while.body

while.body:                                       ; preds = %sw.epilog, %entry
  %state = getelementptr inbounds %"struct.icu_75::number::impl::ParsedPatternInfo", ptr %this1, i32 0, i32 4
  %call = call noundef i32 @_ZN6icu_756number4impl17ParsedPatternInfo11ParserState4peekEv(ptr noundef nonnull align 8 dereferenceable(12) %state)
  switch i32 %call, label %sw.default [
    i32 35, label %sw.bb
    i32 48, label %sw.bb4
    i32 49, label %sw.bb4
    i32 50, label %sw.bb4
    i32 51, label %sw.bb4
    i32 52, label %sw.bb4
    i32 53, label %sw.bb4
    i32 54, label %sw.bb4
    i32 55, label %sw.bb4
    i32 56, label %sw.bb4
    i32 57, label %sw.bb4
  ]

sw.bb:                                            ; preds = %while.body
  %1 = load ptr, ptr %result, align 8
  %widthExceptAffixes = getelementptr inbounds %"struct.icu_75::number::impl::ParsedSubpatternInfo", ptr %1, i32 0, i32 10
  %2 = load i32, ptr %widthExceptAffixes, align 4
  %add = add nsw i32 %2, 1
  store i32 %add, ptr %widthExceptAffixes, align 4
  %3 = load ptr, ptr %result, align 8
  %fractionHashSigns = getelementptr inbounds %"struct.icu_75::number::impl::ParsedSubpatternInfo", ptr %3, i32 0, i32 7
  %4 = load i32, ptr %fractionHashSigns, align 8
  %add2 = add nsw i32 %4, 1
  store i32 %add2, ptr %fractionHashSigns, align 8
  %5 = load ptr, ptr %result, align 8
  %fractionTotal = getelementptr inbounds %"struct.icu_75::number::impl::ParsedSubpatternInfo", ptr %5, i32 0, i32 8
  %6 = load i32, ptr %fractionTotal, align 4
  %add3 = add nsw i32 %6, 1
  store i32 %add3, ptr %fractionTotal, align 4
  %7 = load i32, ptr %zeroCounter, align 4
  %inc = add nsw i32 %7, 1
  store i32 %inc, ptr %zeroCounter, align 4
  br label %sw.epilog

sw.bb4:                                           ; preds = %while.body, %while.body, %while.body, %while.body, %while.body, %while.body, %while.body, %while.body, %while.body, %while.body
  %8 = load ptr, ptr %result, align 8
  %fractionHashSigns5 = getelementptr inbounds %"struct.icu_75::number::impl::ParsedSubpatternInfo", ptr %8, i32 0, i32 7
  %9 = load i32, ptr %fractionHashSigns5, align 8
  %cmp = icmp sgt i32 %9, 0
  br i1 %cmp, label %if.then, label %if.end

if.then:                                          ; preds = %sw.bb4
  %state6 = getelementptr inbounds %"struct.icu_75::number::impl::ParsedPatternInfo", ptr %this1, i32 0, i32 4
  call void @_ZN6icu_756number4impl17ParsedPatternInfo11ParserState16toParseExceptionEPKDs(ptr noundef nonnull align 8 dereferenceable(12) %state6, ptr noundef @.str.10)
  %10 = load ptr, ptr %status.addr, align 8
  store i32 65792, ptr %10, align 4
  br label %return

if.end:                                           ; preds = %sw.bb4
  %11 = load ptr, ptr %result, align 8
  %widthExceptAffixes7 = getelementptr inbounds %"struct.icu_75::number::impl::ParsedSubpatternInfo", ptr %11, i32 0, i32 10
  %12 = load i32, ptr %widthExceptAffixes7, align 4
  %add8 = add nsw i32 %12, 1
  store i32 %add8, ptr %widthExceptAffixes7, align 4
  %13 = load ptr, ptr %result, align 8
  %fractionNumerals = getelementptr inbounds %"struct.icu_75::number::impl::ParsedSubpatternInfo", ptr %13, i32 0, i32 6
  %14 = load i32, ptr %fractionNumerals, align 4
  %add9 = add nsw i32 %14, 1
  store i32 %add9, ptr %fractionNumerals, align 4
  %15 = load ptr, ptr %result, align 8
  %fractionTotal10 = getelementptr inbounds %"struct.icu_75::number::impl::ParsedSubpatternInfo", ptr %15, i32 0, i32 8
  %16 = load i32, ptr %fractionTotal10, align 4
  %add11 = add nsw i32 %16, 1
  store i32 %add11, ptr %fractionTotal10, align 4
  %state12 = getelementptr inbounds %"struct.icu_75::number::impl::ParsedPatternInfo", ptr %this1, i32 0, i32 4
  %call13 = call noundef i32 @_ZN6icu_756number4impl17ParsedPatternInfo11ParserState4peekEv(ptr noundef nonnull align 8 dereferenceable(12) %state12)
  %cmp14 = icmp eq i32 %call13, 48
  br i1 %cmp14, label %if.then15, label %if.else

if.then15:                                        ; preds = %if.end
  %17 = load i32, ptr %zeroCounter, align 4
  %inc16 = add nsw i32 %17, 1
  store i32 %inc16, ptr %zeroCounter, align 4
  br label %if.end19

if.else:                                          ; preds = %if.end
  %18 = load ptr, ptr %result, align 8
  %rounding = getelementptr inbounds %"struct.icu_75::number::impl::ParsedSubpatternInfo", ptr %18, i32 0, i32 13
  %state17 = getelementptr inbounds %"struct.icu_75::number::impl::ParsedPatternInfo", ptr %this1, i32 0, i32 4
  %call18 = call noundef i32 @_ZN6icu_756number4impl17ParsedPatternInfo11ParserState4peekEv(ptr noundef nonnull align 8 dereferenceable(12) %state17)
  %sub = sub nsw i32 %call18, 48
  %conv = trunc i32 %sub to i8
  %19 = load i32, ptr %zeroCounter, align 4
  call void @_ZN6icu_756number4impl15DecimalQuantity11appendDigitEaib(ptr noundef nonnull align 8 dereferenceable(66) %rounding, i8 noundef signext %conv, i32 noundef %19, i1 noundef zeroext false)
  store i32 0, ptr %zeroCounter, align 4
  br label %if.end19

if.end19:                                         ; preds = %if.else, %if.then15
  br label %sw.epilog

sw.default:                                       ; preds = %while.body
  br label %return

sw.epilog:                                        ; preds = %if.end19, %sw.bb
  %state20 = getelementptr inbounds %"struct.icu_75::number::impl::ParsedPatternInfo", ptr %this1, i32 0, i32 4
  %call21 = call noundef i32 @_ZN6icu_756number4impl17ParsedPatternInfo11ParserState4nextEv(ptr noundef nonnull align 8 dereferenceable(12) %state20)
  br label %while.body, !llvm.loop !9

return:                                           ; preds = %sw.default, %if.then
  ret void
}