; Function Attrs: mustprogress uwtable
define void @_ZN6icu_756number4impl17ParsedPatternInfo21consumeFractionFormatER10UErrorCode(ptr nocapture noundef nonnull align 8 dereferenceable(433) %this, ptr nocapture noundef nonnull writeonly align 4 dereferenceable(4) %status) local_unnamed_addr #1 align 2 {
entry:
  %state = getelementptr inbounds i8, ptr %this, i64 408
  %offset.i = getelementptr inbounds i8, ptr %this, i64 416
  %0 = load i32, ptr %offset.i, align 8
  %1 = load ptr, ptr %state, align 8
  %fUnion.i.i.i36 = getelementptr inbounds i8, ptr %1, i64 8
  %2 = load i16, ptr %fUnion.i.i.i36, align 8
  %cmp.i.i.i37 = icmp slt i16 %2, 0
  %3 = ashr i16 %2, 5
  %shr.i.i.i38 = sext i16 %3 to i32
  %fLength.i.i39 = getelementptr inbounds i8, ptr %1, i64 12
  %4 = load i32, ptr %fLength.i.i39, align 4
  %cond.i.i40 = select i1 %cmp.i.i.i37, i32 %4, i32 %shr.i.i.i38
  %cmp.i41 = icmp eq i32 %0, %cond.i.i40
  br i1 %cmp.i41, label %return, label %_ZN6icu_756number4impl17ParsedPatternInfo11ParserState4peekEv.exit.lr.ph

_ZN6icu_756number4impl17ParsedPatternInfo11ParserState4peekEv.exit.lr.ph: ; preds = %entry
  %currentSubpattern = getelementptr inbounds i8, ptr %this, i64 424
  %5 = load ptr, ptr %currentSubpattern, align 8
  %fractionHashSigns5 = getelementptr inbounds i8, ptr %5, i64 32
  %widthExceptAffixes7 = getelementptr inbounds i8, ptr %5, i64 44
  %fractionNumerals = getelementptr inbounds i8, ptr %5, i64 28
  %fractionTotal10 = getelementptr inbounds i8, ptr %5, i64 36
  %rounding = getelementptr inbounds i8, ptr %5, i64 56
  br label %_ZN6icu_756number4impl17ParsedPatternInfo11ParserState4peekEv.exit

_ZN6icu_756number4impl17ParsedPatternInfo11ParserState4peekEv.exit: ; preds = %_ZN6icu_756number4impl17ParsedPatternInfo11ParserState4peekEv.exit.lr.ph, %_ZN6icu_756number4impl17ParsedPatternInfo11ParserState4nextEv.exit
  %6 = phi ptr [ %1, %_ZN6icu_756number4impl17ParsedPatternInfo11ParserState4peekEv.exit.lr.ph ], [ %30, %_ZN6icu_756number4impl17ParsedPatternInfo11ParserState4nextEv.exit ]
  %7 = phi i32 [ %0, %_ZN6icu_756number4impl17ParsedPatternInfo11ParserState4peekEv.exit.lr.ph ], [ %add.i, %_ZN6icu_756number4impl17ParsedPatternInfo11ParserState4nextEv.exit ]
  %zeroCounter.042 = phi i32 [ 0, %_ZN6icu_756number4impl17ParsedPatternInfo11ParserState4peekEv.exit.lr.ph ], [ %zeroCounter.1, %_ZN6icu_756number4impl17ParsedPatternInfo11ParserState4nextEv.exit ]
  %call4.i = tail call noundef i32 @_ZNK6icu_7513UnicodeString8char32AtEi(ptr noundef nonnull align 8 dereferenceable(64) %6, i32 noundef %7)
  switch i32 %call4.i, label %return [
    i32 35, label %sw.bb
    i32 48, label %sw.bb4
    i32 49, label %sw.bb4
    i32 50, label %sw.bb4
    i32 51, label %sw.bb4
    i32 52, label %sw.bb4
    i32 53, label %sw.bb4
    i32 54, label %sw.bb4
    i32 55, label %sw.bb4
    i32 56, label %sw.bb4
    i32 57, label %sw.bb4
  ]

sw.bb:                                            ; preds = %_ZN6icu_756number4impl17ParsedPatternInfo11ParserState4peekEv.exit
  %8 = load i32, ptr %widthExceptAffixes7, align 4
  %add = add nsw i32 %8, 1
  store i32 %add, ptr %widthExceptAffixes7, align 4
  %9 = load <2 x i32>, ptr %fractionHashSigns5, align 8
  %10 = add nsw <2 x i32> %9, <i32 1, i32 1>
  store <2 x i32> %10, ptr %fractionHashSigns5, align 8
  %inc = add nsw i32 %zeroCounter.042, 1
  br label %sw.epilog

sw.bb4:                                           ; preds = %_ZN6icu_756number4impl17ParsedPatternInfo11ParserState4peekEv.exit, %_ZN6icu_756number4impl17ParsedPatternInfo11ParserState4peekEv.exit, %_ZN6icu_756number4impl17ParsedPatternInfo11ParserState4peekEv.exit, %_ZN6icu_756number4impl17ParsedPatternInfo11ParserState4peekEv.exit, %_ZN6icu_756number4impl17ParsedPatternInfo11ParserState4peekEv.exit, %_ZN6icu_756number4impl17ParsedPatternInfo11ParserState4peekEv.exit, %_ZN6icu_756number4impl17ParsedPatternInfo11ParserState4peekEv.exit, %_ZN6icu_756number4impl17ParsedPatternInfo11ParserState4peekEv.exit, %_ZN6icu_756number4impl17ParsedPatternInfo11ParserState4peekEv.exit, %_ZN6icu_756number4impl17ParsedPatternInfo11ParserState4peekEv.exit
  %11 = load i32, ptr %fractionHashSigns5, align 8
  %cmp = icmp sgt i32 %11, 0
  br i1 %cmp, label %if.then, label %if.end

if.then:                                          ; preds = %sw.bb4
  store i32 65792, ptr %status, align 4
  br label %return

if.end:                                           ; preds = %sw.bb4
  %12 = load i32, ptr %widthExceptAffixes7, align 4
  %add8 = add nsw i32 %12, 1
  store i32 %add8, ptr %widthExceptAffixes7, align 4
  %13 = load i32, ptr %fractionNumerals, align 4
  %add9 = add nsw i32 %13, 1
  store i32 %add9, ptr %fractionNumerals, align 4
  %14 = load i32, ptr %fractionTotal10, align 4
  %add11 = add nsw i32 %14, 1
  store i32 %add11, ptr %fractionTotal10, align 4
  %15 = load i32, ptr %offset.i, align 8
  %16 = load ptr, ptr %state, align 8
  %fUnion.i.i.i11 = getelementptr inbounds i8, ptr %16, i64 8
  %17 = load i16, ptr %fUnion.i.i.i11, align 8
  %cmp.i.i.i12 = icmp slt i16 %17, 0
  %18 = ashr i16 %17, 5
  %shr.i.i.i13 = sext i16 %18 to i32
  %fLength.i.i14 = getelementptr inbounds i8, ptr %16, i64 12
  %19 = load i32, ptr %fLength.i.i14, align 4
  %cond.i.i15 = select i1 %cmp.i.i.i12, i32 %19, i32 %shr.i.i.i13
  %cmp.i16 = icmp eq i32 %15, %cond.i.i15
  br i1 %cmp.i16, label %if.else, label %_ZN6icu_756number4impl17ParsedPatternInfo11ParserState4peekEv.exit20

_ZN6icu_756number4impl17ParsedPatternInfo11ParserState4peekEv.exit20: ; preds = %if.end
  %call4.i18 = tail call noundef i32 @_ZNK6icu_7513UnicodeString8char32AtEi(ptr noundef nonnull align 8 dereferenceable(64) %16, i32 noundef %15)
  %cmp14 = icmp eq i32 %call4.i18, 48
  br i1 %cmp14, label %if.then15, label %_ZN6icu_756number4impl17ParsedPatternInfo11ParserState4peekEv.exit20.if.else_crit_edge

_ZN6icu_756number4impl17ParsedPatternInfo11ParserState4peekEv.exit20.if.else_crit_edge: ; preds = %_ZN6icu_756number4impl17ParsedPatternInfo11ParserState4peekEv.exit20
  %.pre = load i32, ptr %offset.i, align 8
  %.pre43 = load ptr, ptr %state, align 8
  %fUnion.i.i.i22.phi.trans.insert = getelementptr inbounds i8, ptr %.pre43, i64 8
  %.pre44 = load i16, ptr %fUnion.i.i.i22.phi.trans.insert, align 8
  %fLength.i.i25.phi.trans.insert = getelementptr inbounds i8, ptr %.pre43, i64 12
  %.pre45 = load i32, ptr %fLength.i.i25.phi.trans.insert, align 4
  %.pre47 = ashr i16 %.pre44, 5
  %.pre48 = sext i16 %.pre47 to i32
  br label %if.else

if.then15:                                        ; preds = %_ZN6icu_756number4impl17ParsedPatternInfo11ParserState4peekEv.exit20
  %inc16 = add nsw i32 %zeroCounter.042, 1
  br label %sw.epilog

if.else:                                          ; preds = %_ZN6icu_756number4impl17ParsedPatternInfo11ParserState4peekEv.exit20.if.else_crit_edge, %if.end
  %shr.i.i.i24.pre-phi = phi i32 [ %.pre48, %_ZN6icu_756number4impl17ParsedPatternInfo11ParserState4peekEv.exit20.if.else_crit_edge ], [ %shr.i.i.i13, %if.end ]
  %20 = phi i32 [ %.pre45, %_ZN6icu_756number4impl17ParsedPatternInfo11ParserState4peekEv.exit20.if.else_crit_edge ], [ %19, %if.end ]
  %21 = phi i16 [ %.pre44, %_ZN6icu_756number4impl17ParsedPatternInfo11ParserState4peekEv.exit20.if.else_crit_edge ], [ %17, %if.end ]
  %22 = phi ptr [ %.pre43, %_ZN6icu_756number4impl17ParsedPatternInfo11ParserState4peekEv.exit20.if.else_crit_edge ], [ %16, %if.end ]
  %23 = phi i32 [ %.pre, %_ZN6icu_756number4impl17ParsedPatternInfo11ParserState4peekEv.exit20.if.else_crit_edge ], [ %15, %if.end ]
  %cmp.i.i.i23 = icmp slt i16 %21, 0
  %cond.i.i26 = select i1 %cmp.i.i.i23, i32 %20, i32 %shr.i.i.i24.pre-phi
  %cmp.i27 = icmp eq i32 %23, %cond.i.i26
  br i1 %cmp.i27, label %_ZN6icu_756number4impl17ParsedPatternInfo11ParserState4peekEv.exit31, label %if.else.i28

if.else.i28:                                      ; preds = %if.else
  %call4.i29 = tail call noundef i32 @_ZNK6icu_7513UnicodeString8char32AtEi(ptr noundef nonnull align 8 dereferenceable(64) %22, i32 noundef %23)
  br label %_ZN6icu_756number4impl17ParsedPatternInfo11ParserState4peekEv.exit31

_ZN6icu_756number4impl17ParsedPatternInfo11ParserState4peekEv.exit31: ; preds = %if.else, %if.else.i28
  %retval.0.i30 = phi i32 [ %call4.i29, %if.else.i28 ], [ -1, %if.else ]
  %24 = trunc i32 %retval.0.i30 to i8
  %conv = add i8 %24, -48
  tail call void @_ZN6icu_756number4impl15DecimalQuantity11appendDigitEaib(ptr noundef nonnull align 8 dereferenceable(66) %rounding, i8 noundef signext %conv, i32 noundef %zeroCounter.042, i1 noundef zeroext false)
  br label %sw.epilog

sw.epilog:                                        ; preds = %if.then15, %_ZN6icu_756number4impl17ParsedPatternInfo11ParserState4peekEv.exit31, %sw.bb
  %zeroCounter.1 = phi i32 [ %inc16, %if.then15 ], [ 0, %_ZN6icu_756number4impl17ParsedPatternInfo11ParserState4peekEv.exit31 ], [ %inc, %sw.bb ]
  %25 = load i32, ptr %offset.i, align 8
  %26 = load ptr, ptr %state, align 8
  %fUnion.i.i.i.i = getelementptr inbounds i8, ptr %26, i64 8
  %27 = load i16, ptr %fUnion.i.i.i.i, align 8
  %cmp.i.i.i.i = icmp slt i16 %27, 0
  %28 = ashr i16 %27, 5
  %shr.i.i.i.i = sext i16 %28 to i32
  %fLength.i.i.i = getelementptr inbounds i8, ptr %26, i64 12
  %29 = load i32, ptr %fLength.i.i.i, align 4
  %cond.i.i.i = select i1 %cmp.i.i.i.i, i32 %29, i32 %shr.i.i.i.i
  %cmp.i.i = icmp eq i32 %25, %cond.i.i.i
  br i1 %cmp.i.i, label %_ZN6icu_756number4impl17ParsedPatternInfo11ParserState4nextEv.exit, label %_ZN6icu_756number4impl17ParsedPatternInfo11ParserState4peekEv.exit.i

_ZN6icu_756number4impl17ParsedPatternInfo11ParserState4peekEv.exit.i: ; preds = %sw.epilog
  %call4.i.i = tail call noundef i32 @_ZNK6icu_7513UnicodeString8char32AtEi(ptr noundef nonnull align 8 dereferenceable(64) %26, i32 noundef %25)
  %cmp.i32 = icmp ult i32 %call4.i.i, 65536
  %spec.select.i = select i1 %cmp.i32, i32 1, i32 2
  %.pre.i = load i32, ptr %offset.i, align 8
  %.pre46 = load ptr, ptr %state, align 8
  br label %_ZN6icu_756number4impl17ParsedPatternInfo11ParserState4nextEv.exit

_ZN6icu_756number4impl17ParsedPatternInfo11ParserState4nextEv.exit: ; preds = %sw.epilog, %_ZN6icu_756number4impl17ParsedPatternInfo11ParserState4peekEv.exit.i
  %30 = phi ptr [ %26, %sw.epilog ], [ %.pre46, %_ZN6icu_756number4impl17ParsedPatternInfo11ParserState4peekEv.exit.i ]
  %31 = phi i32 [ %25, %sw.epilog ], [ %.pre.i, %_ZN6icu_756number4impl17ParsedPatternInfo11ParserState4peekEv.exit.i ]
  %32 = phi i32 [ 2, %sw.epilog ], [ %spec.select.i, %_ZN6icu_756number4impl17ParsedPatternInfo11ParserState4peekEv.exit.i ]
  %add.i = add nsw i32 %32, %31
  store i32 %add.i, ptr %offset.i, align 8
  %fUnion.i.i.i = getelementptr inbounds i8, ptr %30, i64 8
  %33 = load i16, ptr %fUnion.i.i.i, align 8
  %cmp.i.i.i = icmp slt i16 %33, 0
  %34 = ashr i16 %33, 5
  %shr.i.i.i = sext i16 %34 to i32
  %fLength.i.i = getelementptr inbounds i8, ptr %30, i64 12
  %35 = load i32, ptr %fLength.i.i, align 4
  %cond.i.i = select i1 %cmp.i.i.i, i32 %35, i32 %shr.i.i.i
  %cmp.i = icmp eq i32 %add.i, %cond.i.i
  br i1 %cmp.i, label %return, label %_ZN6icu_756number4impl17ParsedPatternInfo11ParserState4peekEv.exit, !llvm.loop !9

return:                                           ; preds = %_ZN6icu_756number4impl17ParsedPatternInfo11ParserState4peekEv.exit, %_ZN6icu_756number4impl17ParsedPatternInfo11ParserState4nextEv.exit, %entry, %if.then
  ret void
}